; ModuleID = '22/708.c'
source_filename = "22/708.c"
target datalayout = "e-m:e-p270:32:32-p271:32:32-p272:64:64-i64:64-f80:128-n8:16:32:64-S128"
target triple = "x86_64-pc-linux-gnu"

@.str = private unnamed_addr constant [5 x i8] c"%d%c\00", align 1
@.str.1 = private unnamed_addr constant [3 x i8] c"%d\00", align 1
@.str.2 = private unnamed_addr constant [3 x i8] c"No\00", align 1

; Function Attrs: noinline nounwind uwtable
define dso_local i32 @main() #0 {
  %1 = alloca i32, align 4
  %2 = alloca i32, align 4
  %3 = alloca i32, align 4
  %4 = alloca i32, align 4
  %5 = alloca i32, align 4
  %6 = alloca [300 x i32], align 16
  %7 = alloca [300 x i32], align 16
  %8 = alloca [300 x i32], align 16
  %9 = alloca i32, align 4
  %10 = alloca [300 x i32], align 16
  %11 = alloca i32, align 4
  %12 = alloca i32, align 4
  %13 = alloca [300 x i8], align 16
  store i32 0, i32* %1, align 4
  %14 = bitcast [300 x i32]* %8 to i8*
  call void @llvm.memset.p0i8.i64(i8* align 16 %14, i8 0, i64 1200, i1 false)
  store i32 1, i32* %9, align 4
  %15 = bitcast [300 x i32]* %10 to i8*
  call void @llvm.memset.p0i8.i64(i8* align 16 %15, i8 0, i64 1200, i1 false)
  store i32 0, i32* %11, align 4
  store i32 0, i32* %4, align 4
  br label %16

16:                                               ; preds = %26, %0
  %17 = load i32, i32* %4, align 4
  %18 = sext i32 %17 to i64
  %19 = getelementptr inbounds [300 x i32], [300 x i32]* %6, i64 0, i64 %18
  %20 = load i32, i32* %4, align 4
  %21 = sext i32 %20 to i64
  %22 = getelementptr inbounds [300 x i8], [300 x i8]* %13, i64 0, i64 %21
  %23 = call i32 (i8*, ...) @__isoc99_scanf(i8* getelementptr inbounds ([5 x i8], [5 x i8]* @.str, i64 0, i64 0), i32* %19, i8* %22)
  %24 = load i32, i32* %4, align 4
  %25 = add nsw i32 %24, 1
  store i32 %25, i32* %4, align 4
  br label %26

26:                                               ; preds = %16
  %27 = load i32, i32* %4, align 4
  %28 = sub nsw i32 %27, 1
  %29 = sext i32 %28 to i64
  %30 = getelementptr inbounds [300 x i8], [300 x i8]* %13, i64 0, i64 %29
  %31 = load i8, i8* %30, align 1
  %32 = sext i8 %31 to i32
  %33 = icmp eq i32 %32, 44
  br i1 %33, label %16, label %34

34:                                               ; preds = %26
  %35 = getelementptr inbounds [300 x i32], [300 x i32]* %6, i64 0, i64 0
  %36 = load i32, i32* %35, align 16
  %37 = getelementptr inbounds [300 x i32], [300 x i32]* %7, i64 0, i64 0
  store i32 %36, i32* %37, align 16
  %38 = load i32, i32* %4, align 4
  store i32 %38, i32* %2, align 4
  store i32 1, i32* %4, align 4
  br label %39

39:                                               ; preds = %85, %34
  %40 = load i32, i32* %4, align 4
  %41 = load i32, i32* %2, align 4
  %42 = sub nsw i32 %41, 1
  %43 = icmp sle i32 %40, %42
  br i1 %43, label %44, label %88

44:                                               ; preds = %39
  store i32 0, i32* %5, align 4
  br label %45

45:                                               ; preds = %65, %44
  %46 = load i32, i32* %5, align 4
  %47 = load i32, i32* %4, align 4
  %48 = sub nsw i32 %47, 1
  %49 = icmp sle i32 %46, %48
  br i1 %49, label %50, label %68

50:                                               ; preds = %45
  %51 = load i32, i32* %4, align 4
  %52 = sext i32 %51 to i64
  %53 = getelementptr inbounds [300 x i32], [300 x i32]* %6, i64 0, i64 %52
  %54 = load i32, i32* %53, align 4
  %55 = load i32, i32* %5, align 4
  %56 = sext i32 %55 to i64
  %57 = getelementptr inbounds [300 x i32], [300 x i32]* %6, i64 0, i64 %56
  %58 = load i32, i32* %57, align 4
  %59 = icmp eq i32 %54, %58
  br i1 %59, label %60, label %64

60:                                               ; preds = %50
  %61 = load i32, i32* %4, align 4
  %62 = sext i32 %61 to i64
  %63 = getelementptr inbounds [300 x i32], [300 x i32]* %8, i64 0, i64 %62
  store i32 1, i32* %63, align 4
  br label %64

64:                                               ; preds = %60, %50
  br label %65

65:                                               ; preds = %64
  %66 = load i32, i32* %5, align 4
  %67 = add nsw i32 %66, 1
  store i32 %67, i32* %5, align 4
  br label %45

68:                                               ; preds = %45
  %69 = load i32, i32* %4, align 4
  %70 = sext i32 %69 to i64
  %71 = getelementptr inbounds [300 x i32], [300 x i32]* %8, i64 0, i64 %70
  %72 = load i32, i32* %71, align 4
  %73 = icmp eq i32 %72, 0
  br i1 %73, label %74, label %84

74:                                               ; preds = %68
  %75 = load i32, i32* %4, align 4
  %76 = sext i32 %75 to i64
  %77 = getelementptr inbounds [300 x i32], [300 x i32]* %6, i64 0, i64 %76
  %78 = load i32, i32* %77, align 4
  %79 = load i32, i32* %9, align 4
  %80 = sext i32 %79 to i64
  %81 = getelementptr inbounds [300 x i32], [300 x i32]* %7, i64 0, i64 %80
  store i32 %78, i32* %81, align 4
  %82 = load i32, i32* %9, align 4
  %83 = add nsw i32 %82, 1
  store i32 %83, i32* %9, align 4
  br label %84

84:                                               ; preds = %74, %68
  br label %85

85:                                               ; preds = %84
  %86 = load i32, i32* %4, align 4
  %87 = add nsw i32 %86, 1
  store i32 %87, i32* %4, align 4
  br label %39

88:                                               ; preds = %39
  %89 = load i32, i32* %9, align 4
  store i32 %89, i32* %3, align 4
  store i32 0, i32* %4, align 4
  br label %90

90:                                               ; preds = %125, %88
  %91 = load i32, i32* %4, align 4
  %92 = load i32, i32* %3, align 4
  %93 = sub nsw i32 %92, 1
  %94 = icmp sle i32 %91, %93
  br i1 %94, label %95, label %128

95:                                               ; preds = %90
  store i32 0, i32* %5, align 4
  br label %96

96:                                               ; preds = %121, %95
  %97 = load i32, i32* %5, align 4
  %98 = load i32, i32* %3, align 4
  %99 = sub nsw i32 %98, 1
  %100 = icmp sle i32 %97, %99
  br i1 %100, label %101, label %124

101:                                              ; preds = %96
  %102 = load i32, i32* %5, align 4
  %103 = sext i32 %102 to i64
  %104 = getelementptr inbounds [300 x i32], [300 x i32]* %7, i64 0, i64 %103
  %105 = load i32, i32* %104, align 4
  %106 = load i32, i32* %4, align 4
  %107 = sext i32 %106 to i64
  %108 = getelementptr inbounds [300 x i32], [300 x i32]* %7, i64 0, i64 %107
  %109 = load i32, i32* %108, align 4
  %110 = icmp sgt i32 %105, %109
  br i1 %110, label %111, label %120

111:                                              ; preds = %101
  %112 = load i32, i32* %4, align 4
  %113 = sext i32 %112 to i64
  %114 = getelementptr inbounds [300 x i32], [300 x i32]* %10, i64 0, i64 %113
  %115 = load i32, i32* %114, align 4
  %116 = add nsw i32 %115, 1
  %117 = load i32, i32* %4, align 4
  %118 = sext i32 %117 to i64
  %119 = getelementptr inbounds [300 x i32], [300 x i32]* %10, i64 0, i64 %118
  store i32 %116, i32* %119, align 4
  br label %120

120:                                              ; preds = %111, %101
  br label %121

121:                                              ; preds = %120
  %122 = load i32, i32* %5, align 4
  %123 = add nsw i32 %122, 1
  store i32 %123, i32* %5, align 4
  br label %96

124:                                              ; preds = %96
  br label %125

125:                                              ; preds = %124
  %126 = load i32, i32* %4, align 4
  %127 = add nsw i32 %126, 1
  store i32 %127, i32* %4, align 4
  br label %90

128:                                              ; preds = %90
  store i32 0, i32* %4, align 4
  br label %129

129:                                              ; preds = %146, %128
  %130 = load i32, i32* %4, align 4
  %131 = load i32, i32* %3, align 4
  %132 = sub nsw i32 %131, 1
  %133 = icmp sle i32 %130, %132
  br i1 %133, label %134, label %149

134:                                              ; preds = %129
  %135 = load i32, i32* %4, align 4
  %136 = sext i32 %135 to i64
  %137 = getelementptr inbounds [300 x i32], [300 x i32]* %10, i64 0, i64 %136
  %138 = load i32, i32* %137, align 4
  %139 = icmp eq i32 %138, 1
  br i1 %139, label %140, label %145

140:                                              ; preds = %134
  store i32 1, i32* %11, align 4
  %141 = load i32, i32* %4, align 4
  %142 = sext i32 %141 to i64
  %143 = getelementptr inbounds [300 x i32], [300 x i32]* %7, i64 0, i64 %142
  %144 = load i32, i32* %143, align 4
  store i32 %144, i32* %12, align 4
  br label %149

145:                                              ; preds = %134
  br label %146

146:                                              ; preds = %145
  %147 = load i32, i32* %4, align 4
  %148 = add nsw i32 %147, 1
  store i32 %148, i32* %4, align 4
  br label %129

149:                                              ; preds = %140, %129
  %150 = load i32, i32* %11, align 4
  %151 = icmp eq i32 %150, 1
  br i1 %151, label %152, label %155

152:                                              ; preds = %149
  %153 = load i32, i32* %12, align 4
  %154 = call i32 (i8*, ...) @printf(i8* getelementptr inbounds ([3 x i8], [3 x i8]* @.str.1, i64 0, i64 0), i32 %153)
  br label %157

155:                                              ; preds = %149
  %156 = call i32 (i8*, ...) @printf(i8* getelementptr inbounds ([3 x i8], [3 x i8]* @.str.2, i64 0, i64 0))
  br label %157

157:                                              ; preds = %155, %152
  ret i32 0
}

; Function Attrs: argmemonly nounwind willreturn
declare void @llvm.memset.p0i8.i64(i8* nocapture writeonly, i8, i64, i1 immarg) #1

declare dso_local i32 @__isoc99_scanf(i8*, ...) #2

declare dso_local i32 @printf(i8*, ...) #2


!llvm.module.flags = !{!0}
!llvm.ident = !{!1}

!0 = !{i32 1, !"wchar_size", i32 4}
!1 = !{!"clang version 10.0.0-4ubuntu1 "}
